target datalayout = "e-m:e-p270:32:32-p271:32:32-p272:64:64-i64:64-i128:128-f80:128-n8:16:32:64-S128"
target triple = "x86_64-pc-linux-gnu"

%struct.AVFilterContext = type { ptr, ptr, ptr, ptr, ptr, i32, ptr, ptr, i32, ptr, ptr, i32, i32, ptr, ptr, ptr, ptr, i32, ptr, i32, i32 }
%struct.TremoloContext = type { ptr, double, double, ptr, i32, i32 }
%struct.AVFilterLink = type { ptr, ptr, ptr, ptr, i32, i32, i32, i32, %struct.AVRational, i32, i32, i32, %struct.AVChannelLayout, %struct.AVRational, ptr, i32, %struct.AVFilterFormatsConfig, %struct.AVFilterFormatsConfig }
%struct.AVChannelLayout = type { i32, i32, %union.anon.1, ptr }
%union.anon.1 = type { i64 }
%struct.AVRational = type { i32, i32 }
%struct.AVFilterFormatsConfig = type { ptr, ptr, ptr, ptr, ptr }

; Function Attrs: nounwind uwtable
define internal i32 @config_input(ptr noundef %0) #1 {
  %2 = alloca i32, align 4
  %3 = alloca ptr, align 8
  %4 = alloca ptr, align 8
  %5 = alloca ptr, align 8
  %6 = alloca double, align 8
  %7 = alloca i32, align 4
  %8 = alloca i32, align 4
  %9 = alloca double, align 8
  store ptr %0, ptr %3, align 8, !tbaa !24
  call void @llvm.lifetime.start.p0(i64 8, ptr %4) #5
  %10 = load ptr, ptr %3, align 8, !tbaa !24
  %11 = getelementptr inbounds nuw %struct.AVFilterLink, ptr %10, i32 0, i32 2
  %12 = load ptr, ptr %11, align 8, !tbaa !28
  store ptr %12, ptr %4, align 8, !tbaa !4
  call void @llvm.lifetime.start.p0(i64 8, ptr %5) #5
  %13 = load ptr, ptr %4, align 8, !tbaa !4
  %14 = getelementptr inbounds nuw %struct.AVFilterContext, ptr %13, i32 0, i32 9
  %15 = load ptr, ptr %14, align 8, !tbaa !9
  store ptr %15, ptr %5, align 8, !tbaa !22
  call void @llvm.lifetime.start.p0(i64 8, ptr %6) #5
  %16 = load ptr, ptr %5, align 8, !tbaa !22
  %17 = getelementptr inbounds nuw %struct.TremoloContext, ptr %16, i32 0, i32 2
  %18 = load double, ptr %17, align 8, !tbaa !56
  %19 = fdiv nsz double %18, 2.000000e+00
  %20 = fsub nsz double 1.000000e+00, %19
  store double %20, ptr %6, align 8, !tbaa !47
  call void @llvm.lifetime.start.p0(i64 4, ptr %7) #5
  %21 = load ptr, ptr %3, align 8, !tbaa !24
  %22 = getelementptr inbounds nuw %struct.AVFilterLink, ptr %21, i32 0, i32 11
  %23 = load i32, ptr %22, align 8, !tbaa !57
  %24 = sitofp i32 %23 to double
  %25 = load ptr, ptr %5, align 8, !tbaa !22
  %26 = getelementptr inbounds nuw %struct.TremoloContext, ptr %25, i32 0, i32 1
  %27 = load double, ptr %26, align 8, !tbaa !58
  %28 = fdiv nsz double %24, %27
  %29 = fadd nsz double %28, 5.000000e-01
  %30 = call i64 @llvm.lrint.i64.f64(double %29)
  %31 = trunc i64 %30 to i32
  %32 = load ptr, ptr %5, align 8, !tbaa !22
  %33 = getelementptr inbounds nuw %struct.TremoloContext, ptr %32, i32 0, i32 4
  store i32 %31, ptr %33, align 8, !tbaa !54
  %34 = load ptr, ptr %5, align 8, !tbaa !22
  %35 = getelementptr inbounds nuw %struct.TremoloContext, ptr %34, i32 0, i32 4
  %36 = load i32, ptr %35, align 8, !tbaa !54
  %37 = sext i32 %36 to i64
  %38 = call ptr @av_malloc_array(i64 noundef %37, i64 noundef 8)
  %39 = load ptr, ptr %5, align 8, !tbaa !22
  %40 = getelementptr inbounds nuw %struct.TremoloContext, ptr %39, i32 0, i32 3
  store ptr %38, ptr %40, align 8, !tbaa !49
  %41 = load ptr, ptr %5, align 8, !tbaa !22
  %42 = getelementptr inbounds nuw %struct.TremoloContext, ptr %41, i32 0, i32 3
  %43 = load ptr, ptr %42, align 8, !tbaa !49
  %44 = icmp ne ptr %43, null
  br i1 %44, label %46, label %45

45:                                               ; preds = %1
  store i32 -12, ptr %2, align 4
  store i32 1, ptr %8, align 4
  br label %88

46:                                               ; preds = %1
  store i32 0, ptr %7, align 4, !tbaa !40
  br label %47

47:                                               ; preds = %82, %46
  %48 = load i32, ptr %7, align 4, !tbaa !40
  %49 = load ptr, ptr %5, align 8, !tbaa !22
  %50 = getelementptr inbounds nuw %struct.TremoloContext, ptr %49, i32 0, i32 4
  %51 = load i32, ptr %50, align 8, !tbaa !54
  %52 = icmp slt i32 %48, %51
  br i1 %52, label %53, label %85

53:                                               ; preds = %47
  call void @llvm.lifetime.start.p0(i64 8, ptr %9) #5
  %54 = load ptr, ptr %5, align 8, !tbaa !22
  %55 = getelementptr inbounds nuw %struct.TremoloContext, ptr %54, i32 0, i32 1
  %56 = load double, ptr %55, align 8, !tbaa !58
  %57 = load i32, ptr %7, align 4, !tbaa !40
  %58 = sitofp i32 %57 to double
  %59 = fmul nsz double %56, %58
  %60 = load ptr, ptr %3, align 8, !tbaa !24
  %61 = getelementptr inbounds nuw %struct.AVFilterLink, ptr %60, i32 0, i32 11
  %62 = load i32, ptr %61, align 8, !tbaa !57
  %63 = sitofp i32 %62 to double
  %64 = fdiv nsz double %59, %63
  store double %64, ptr %9, align 8, !tbaa !47
  %65 = load double, ptr %9, align 8, !tbaa !47
  %66 = fadd nsz double %65, 2.500000e-01
  %67 = frem nsz double %66, 1.000000e+00
  %68 = fmul nsz double 0x401921FB54442D18, %67
  %69 = call nsz double @llvm.sin.f64(double %68)
  store double %69, ptr %9, align 8, !tbaa !47
  %70 = load double, ptr %9, align 8, !tbaa !47
  %71 = load double, ptr %6, align 8, !tbaa !47
  %72 = call nsz double @llvm.fabs.f64(double %71)
  %73 = fsub nsz double 1.000000e+00, %72
  %74 = load double, ptr %6, align 8, !tbaa !47
  %75 = call nsz double @llvm.fmuladd.f64(double %70, double %73, double %74)
  %76 = load ptr, ptr %5, align 8, !tbaa !22
  %77 = getelementptr inbounds nuw %struct.TremoloContext, ptr %76, i32 0, i32 3
  %78 = load ptr, ptr %77, align 8, !tbaa !49
  %79 = load i32, ptr %7, align 4, !tbaa !40
  %80 = sext i32 %79 to i64
  %81 = getelementptr inbounds double, ptr %78, i64 %80
  store double %75, ptr %81, align 8, !tbaa !47
  call void @llvm.lifetime.end.p0(i64 8, ptr %9) #5
  br label %82

82:                                               ; preds = %53
  %83 = load i32, ptr %7, align 4, !tbaa !40
  %84 = add nsw i32 %83, 1
  store i32 %84, ptr %7, align 4, !tbaa !40
  br label %47, !llvm.loop !59

85:                                               ; preds = %47
  %86 = load ptr, ptr %5, align 8, !tbaa !22
  %87 = getelementptr inbounds nuw %struct.TremoloContext, ptr %86, i32 0, i32 5
  store i32 0, ptr %87, align 4, !tbaa !51
  store i32 0, ptr %2, align 4
  store i32 1, ptr %8, align 4
  br label %88

88:                                               ; preds = %85, %45
  call void @llvm.lifetime.end.p0(i64 4, ptr %7) #5
  call void @llvm.lifetime.end.p0(i64 8, ptr %6) #5
  call void @llvm.lifetime.end.p0(i64 8, ptr %5) #5
  call void @llvm.lifetime.end.p0(i64 8, ptr %4) #5
  %89 = load i32, ptr %2, align 4
  ret i32 %89
}