; Function Attrs: nounwind uwtable
define internal range(i32 -12, 1) i32 @config_input(ptr noundef readonly captures(none) %0) #1 {
  %2 = getelementptr inbounds nuw i8, ptr %0, i64 16
  %3 = load ptr, ptr %2, align 8, !tbaa !22
  %4 = getelementptr inbounds nuw i8, ptr %3, i64 72
  %5 = load ptr, ptr %4, align 8, !tbaa !4
  %6 = getelementptr inbounds nuw i8, ptr %5, i64 16
  %7 = load double, ptr %6, align 8, !tbaa !51
  %8 = fmul nsz double %7, 5.000000e-01
  %9 = fsub nsz double 1.000000e+00, %8
  %10 = getelementptr inbounds nuw i8, ptr %0, i64 64
  %11 = load i32, ptr %10, align 8, !tbaa !52
  %12 = sitofp i32 %11 to double
  %13 = getelementptr inbounds nuw i8, ptr %5, i64 8
  %14 = load double, ptr %13, align 8, !tbaa !53
  %15 = fdiv nsz double %12, %14
  %16 = fadd nsz double %15, 5.000000e-01
  %17 = tail call i64 @llvm.lrint.i64.f64(double %16)
  %18 = trunc i64 %17 to i32
  %19 = getelementptr inbounds nuw i8, ptr %5, i64 32
  store i32 %18, ptr %19, align 8, !tbaa !49
  %sext = shl i64 %17, 32
  %20 = ashr exact i64 %sext, 32
  %21 = tail call ptr @av_malloc_array(i64 noundef %20, i64 noundef 8) #4
  %22 = getelementptr inbounds nuw i8, ptr %5, i64 24
  store ptr %21, ptr %22, align 8, !tbaa !42
  %.not = icmp eq ptr %21, null
  br i1 %.not, label %42, label %.preheader

.preheader:                                       ; preds = %1
  %23 = load i32, ptr %19, align 8, !tbaa !49
  %24 = icmp sgt i32 %23, 0
  br i1 %24, label %.lr.ph, label %._crit_edge

.lr.ph:                                           ; preds = %.preheader
  %25 = load i32, ptr %10, align 8, !tbaa !52
  %26 = sitofp i32 %25 to double
  %27 = tail call nsz double @llvm.fabs.f64(double %9)
  %28 = fsub nsz double 1.000000e+00, %27
  %wide.trip.count = zext nneg i32 %23 to i64
  br label %29

29:                                               ; preds = %.lr.ph, %29
  %indvars.iv = phi i64 [ 0, %.lr.ph ], [ %indvars.iv.next, %29 ]
  %30 = load double, ptr %13, align 8, !tbaa !53
  %31 = trunc nuw nsw i64 %indvars.iv to i32
  %32 = uitofp nneg i32 %31 to double
  %33 = fmul nsz double %30, %32
  %34 = fdiv nsz double %33, %26
  %35 = fadd nsz double %34, 2.500000e-01
  %36 = frem nsz double %35, 1.000000e+00
  %37 = fmul nsz double %36, 0x401921FB54442D18
  %38 = tail call nsz double @llvm.sin.f64(double %37)
  %39 = tail call nsz double @llvm.fmuladd.f64(double %38, double %28, double %9)
  %40 = getelementptr inbounds nuw double, ptr %21, i64 %indvars.iv
  store double %39, ptr %40, align 8, !tbaa !46
  %indvars.iv.next = add nuw nsw i64 %indvars.iv, 1
  %exitcond.not = icmp eq i64 %indvars.iv.next, %wide.trip.count
  br i1 %exitcond.not, label %._crit_edge, label %29, !llvm.loop !54

._crit_edge:                                      ; preds = %29, %.preheader
  %41 = getelementptr inbounds nuw i8, ptr %5, i64 36
  store i32 0, ptr %41, align 4, !tbaa !45
  br label %42

42:                                               ; preds = %1, %._crit_edge
  %.0 = phi i32 [ 0, %._crit_edge ], [ -12, %1 ]
  ret i32 %.0
}